target datalayout = "e-m:e-p270:32:32-p271:32:32-p272:64:64-i64:64-i128:128-f80:128-n8:16:32:64-S128"
target triple = "x86_64-pc-linux-gnu"

%struct._proto_node = type { ptr, ptr, ptr, ptr, ptr, ptr, ptr }
%struct.field_info = type { ptr, i32, i32, i32, i32, i32, i32, ptr, ptr, ptr, i32, i32 }
%struct._header_field_info = type { ptr, ptr, i32, i32, ptr, i64, ptr, i32, i32, i32, i32, ptr }
%struct.write_json_data = type { ptr, ptr, i8, i8, ptr, ptr }

; Function Attrs: null_pointer_is_valid sspstrong uwtable
define internal void @ek_fill_attr(ptr noundef %0, ptr noundef %1, ptr noundef %2) #0 {
  %4 = alloca ptr, align 8
  %5 = alloca ptr, align 8
  %6 = alloca ptr, align 8
  %7 = alloca ptr, align 8
  %8 = alloca ptr, align 8
  %9 = alloca ptr, align 8
  %10 = alloca i32, align 4
  %11 = alloca ptr, align 8
  store ptr %0, ptr %4, align 8
  store ptr %1, ptr %5, align 8
  store ptr %2, ptr %6, align 8
  call void @llvm.lifetime.start.p0(i64 8, ptr %7) #15
  store ptr null, ptr %7, align 8
  call void @llvm.lifetime.start.p0(i64 8, ptr %8) #15
  store ptr null, ptr %8, align 8
  call void @llvm.lifetime.start.p0(i64 8, ptr %9) #15
  %12 = load ptr, ptr %4, align 8
  %13 = getelementptr inbounds nuw %struct._proto_node, ptr %12, i32 0, i32 0
  %14 = load ptr, ptr %13, align 8
  store ptr %14, ptr %9, align 8
  br label %15

15:                                               ; preds = %100, %3
  %16 = load ptr, ptr %9, align 8
  %17 = icmp ne ptr %16, null
  br i1 %17, label %18, label %104

18:                                               ; preds = %15
  %19 = load ptr, ptr %9, align 8
  %20 = getelementptr inbounds nuw %struct._proto_node, ptr %19, i32 0, i32 5
  %21 = load ptr, ptr %20, align 8
  store ptr %21, ptr %7, align 8
  br label %22

22:                                               ; preds = %18
  br label %23

23:                                               ; preds = %22
  br label %24

24:                                               ; preds = %23
  %25 = load ptr, ptr %5, align 8
  %26 = load ptr, ptr %7, align 8
  %27 = getelementptr inbounds nuw %struct.field_info, ptr %26, i32 0, i32 0
  %28 = load ptr, ptr %27, align 8
  %29 = getelementptr inbounds nuw %struct._header_field_info, ptr %28, i32 0, i32 1
  %30 = load ptr, ptr %29, align 8
  %31 = call ptr @g_hash_table_lookup(ptr noundef %25, ptr noundef %30)
  store ptr %31, ptr %8, align 8
  %32 = load ptr, ptr %8, align 8
  %33 = load ptr, ptr %9, align 8
  %34 = call ptr @g_slist_append(ptr noundef %32, ptr noundef %33)
  store ptr %34, ptr %8, align 8
  %35 = load ptr, ptr %5, align 8
  %36 = load ptr, ptr %7, align 8
  %37 = getelementptr inbounds nuw %struct.field_info, ptr %36, i32 0, i32 0
  %38 = load ptr, ptr %37, align 8
  %39 = getelementptr inbounds nuw %struct._header_field_info, ptr %38, i32 0, i32 1
  %40 = load ptr, ptr %39, align 8
  %41 = call noalias ptr @g_strdup(ptr noundef %40)
  %42 = load ptr, ptr %8, align 8
  %43 = call i32 @g_hash_table_insert(ptr noundef %35, ptr noundef %41, ptr noundef %42)
  %44 = load ptr, ptr %7, align 8
  %45 = getelementptr inbounds nuw %struct.field_info, ptr %44, i32 0, i32 0
  %46 = load ptr, ptr %45, align 8
  %47 = getelementptr inbounds nuw %struct._header_field_info, ptr %46, i32 0, i32 2
  %48 = load i32, ptr %47, align 8
  %49 = icmp ne i32 %48, 1
  br i1 %49, label %50, label %99

50:                                               ; preds = %24
  %51 = load ptr, ptr %9, align 8
  %52 = getelementptr inbounds nuw %struct._proto_node, ptr %51, i32 0, i32 0
  %53 = load ptr, ptr %52, align 8
  %54 = icmp ne ptr %53, null
  br i1 %54, label %55, label %99

55:                                               ; preds = %50
  %56 = load ptr, ptr %6, align 8
  %57 = getelementptr inbounds nuw %struct.write_json_data, ptr %56, i32 0, i32 1
  %58 = load ptr, ptr %57, align 8
  %59 = icmp ne ptr %58, null
  br i1 %59, label %60, label %94

60:                                               ; preds = %55
  call void @llvm.lifetime.start.p0(i64 4, ptr %10) #15
  store i32 0, ptr %10, align 4
  %61 = load ptr, ptr %6, align 8
  %62 = getelementptr inbounds nuw %struct.write_json_data, ptr %61, i32 0, i32 1
  %63 = load ptr, ptr %62, align 8
  %64 = load ptr, ptr %7, align 8
  %65 = getelementptr inbounds nuw %struct.field_info, ptr %64, i32 0, i32 0
  %66 = load ptr, ptr %65, align 8
  %67 = getelementptr inbounds nuw %struct._header_field_info, ptr %66, i32 0, i32 1
  %68 = load ptr, ptr %67, align 8
  %69 = call zeroext i1 @ek_check_protocolfilter(ptr noundef %63, ptr noundef %68, ptr noundef %10)
  br i1 %69, label %70, label %92

70:                                               ; preds = %60
  call void @llvm.lifetime.start.p0(i64 8, ptr %11) #15
  store ptr null, ptr %11, align 8
  %71 = load i32, ptr %10, align 4
  %72 = and i32 %71, 1
  %73 = icmp eq i32 %72, 1
  br i1 %73, label %74, label %80

74:                                               ; preds = %70
  %75 = load ptr, ptr %6, align 8
  %76 = getelementptr inbounds nuw %struct.write_json_data, ptr %75, i32 0, i32 1
  %77 = load ptr, ptr %76, align 8
  store ptr %77, ptr %11, align 8
  %78 = load ptr, ptr %6, align 8
  %79 = getelementptr inbounds nuw %struct.write_json_data, ptr %78, i32 0, i32 1
  store ptr null, ptr %79, align 8
  br label %80

80:                                               ; preds = %74, %70
  %81 = load ptr, ptr %9, align 8
  %82 = load ptr, ptr %5, align 8
  %83 = load ptr, ptr %6, align 8
  call void @ek_fill_attr(ptr noundef %81, ptr noundef %82, ptr noundef %83)
  %84 = load i32, ptr %10, align 4
  %85 = and i32 %84, 1
  %86 = icmp eq i32 %85, 1
  br i1 %86, label %87, label %91

87:                                               ; preds = %80
  %88 = load ptr, ptr %11, align 8
  %89 = load ptr, ptr %6, align 8
  %90 = getelementptr inbounds nuw %struct.write_json_data, ptr %89, i32 0, i32 1
  store ptr %88, ptr %90, align 8
  br label %91

91:                                               ; preds = %87, %80
  call void @llvm.lifetime.end.p0(i64 8, ptr %11) #15
  br label %93

92:                                               ; preds = %60
  br label %93

93:                                               ; preds = %92, %91
  call void @llvm.lifetime.end.p0(i64 4, ptr %10) #15
  br label %98

94:                                               ; preds = %55
  %95 = load ptr, ptr %9, align 8
  %96 = load ptr, ptr %5, align 8
  %97 = load ptr, ptr %6, align 8
  call void @ek_fill_attr(ptr noundef %95, ptr noundef %96, ptr noundef %97)
  br label %98

98:                                               ; preds = %94, %93
  br label %100

99:                                               ; preds = %50, %24
  br label %100

100:                                              ; preds = %99, %98
  %101 = load ptr, ptr %9, align 8
  %102 = getelementptr inbounds nuw %struct._proto_node, ptr %101, i32 0, i32 2
  %103 = load ptr, ptr %102, align 8
  store ptr %103, ptr %9, align 8
  br label %15, !llvm.loop !48

104:                                              ; preds = %15
  call void @llvm.lifetime.end.p0(i64 8, ptr %9) #15
  call void @llvm.lifetime.end.p0(i64 8, ptr %8) #15
  call void @llvm.lifetime.end.p0(i64 8, ptr %7) #15
  ret void
}